(dp0
V150814305
p1
(lp2
V2016-07-02
p3
asV150814447
p4
(lp5
V2016-06-24
p6
asV150223100
p7
(lp8
V2016-06-03
p9
asV150218023
p10
(lp11
V2016-06-06
p12
asV150221823
p13
(lp14
V2016-06-25
p15
asV150221741
p16
(lp17
V2016-06-13
p18
asV150223075
p19
(lp20
V2016-06-11
p21
asV150811452
p22
(lp23
V2016-06-02
p24
asV150218581
p25
(lp26
V2016-06-26
p27
asV150814588
p28
(lp29
V2017-02-27
p30
asV150813678
p31
(lp32
V2016-08-03
p33
asV150219984
p34
(lp35
V2017-06-18
p36
aV2017-07-13
p37
asV150223011
p38
(lp39
V2016-06-19
p40
asV150219389
p41
(lp42
V2016-06-14
p43
aV2016-06-22
p44
asV150813394
p45
(lp46
V2017-05-03
p47
asV150813432
p48
(lp49
V2016-08-03
p50
asV150813650
p51
(lp52
V2016-06-01
p53
asV150220975
p54
(lp55
V2016-06-16
p56
asV150812902
p57
(lp58
V2016-06-15
p59
asV150811498
p60
(lp61
V2016-06-17
p62
asV150813439
p63
(lp64
V2017-04-14
p65
asV150220392
p66
(lp67
V2016-07-13
p68
asV150812419
p69
(lp70
V2016-12-03
p71
asV150814749
p72
(lp73
V2017-04-10
p74
asV150219709
p75
(lp76
V2016-06-23
p77
asV150219259
p78
(lp79
V2016-06-27
p80
asV150813195
p81
(lp82
V2017-02-28
p83
asV150218443
p84
(lp85
V2016-07-06
p86
asV150220075
p87
(lp88
V2016-06-07
p89
asV150221691
p90
(lp91
V2017-04-27
p92
asV150219187
p93
(lp94
V2017-08-25
p95
asV150223116
p96
(lp97
V2016-06-08
p98
asV150221245
p99
(lp100
V2016-07-09
p101
asV150220768
p102
(lp103
V2016-07-11
p104
asV150811503
p105
(lp106
V2017-05-28
p107
aV2017-05-22
p108
asV150811322
p109
(lp110
V2016-06-28
p111
asV150813545
p112
(lp113
V2017-09-26
p114
asV150221444
p115
(lp116
V2016-07-15
p117
aV2016-07-14
p118
asV150812438
p119
(lp120
V2016-08-17
p121
aV2017-05-14
p122
aV2017-02-24
p123
aV2017-05-11
p124
aV2016-09-11
p125
aV2016-08-20
p126
aV2016-08-08
p127
aV2017-08-18
p128
aV2016-07-23
p129
aV2017-04-30
p130
aV2017-09-12
p131
aV2017-05-18
p132
aV2017-03-08
p133
aV2016-09-21
p134
aV2017-10-31
p135
aV2017-03-18
p136
aV2017-10-12
p137
aV2016-09-27
p138
aV2016-07-30
p139
aV2017-09-15
p140
aV2016-09-14
p141
aV2016-08-07
p142
aV2017-04-19
p143
aV2017-05-16
p144
aV2016-07-19
p145
aV2017-10-05
p146
aV2017-05-04
p147
aV2017-02-08
p148
aV2017-01-15
p149
aV2017-09-28
p150
aV2016-07-08
p151
aV2016-09-13
p152
aV2016-08-29
p153
aV2017-03-16
p154
aV2017-08-10
p155
aV2017-09-06
p156
aV2017-01-27
p157
aV2017-09-27
p158
aV2017-06-22
p159
aV2017-05-24
p160
aV2017-08-31
p161
aV2017-03-09
p162
aV2016-12-04
p163
aV2016-10-20
p164
aV2017-05-05
p165
aV2017-09-23
p166
aV2017-09-13
p167
aV2016-11-18
p168
aV2016-12-22
p169
aV2016-12-30
p170
aV2017-08-02
p171
aV2016-10-15
p172
aV2017-03-23
p173
aV2017-10-16
p174
aV2016-12-21
p175
aV2016-10-04
p176
aV2017-08-22
p177
aV2017-04-16
p178
aV2016-10-14
p179
aV2017-03-22
p180
aV2016-08-30
p181
aV2017-10-30
p182
aV2016-12-01
p183
aV2017-08-07
p184
aV2016-09-30
p185
aV2016-11-25
p186
aV2016-11-29
p187
aV2017-06-29
p188
aV2017-10-06
p189
aV2017-06-24
p190
aV2017-08-13
p191
aV2016-12-02
p192
aV2017-10-17
p193
aV2017-06-19
p194
aV2017-09-24
p195
aV2017-08-03
p196
aV2016-10-08
p197
aV2017-07-29
p198
aV2017-05-17
p199
aV2017-05-23
p200
aV2017-04-07
p201
aV2017-07-30
p202
aV2016-11-21
p203
aV2016-10-01
p204
aV2016-11-23
p205
aV2017-09-14
p206
aV2017-01-17
p207
aV2017-07-06
p208
aV2016-10-30
p209
aV2017-01-06
p210
aV2017-03-26
p211
aV2017-06-03
p212
aV2016-12-15
p213
aV2017-01-09
p214
aV2017-10-24
p215
aV2016-08-11
p216
aV2017-06-23
p217
aV2017-10-22
p218
aV2017-02-11
p219
aV2016-08-12
p220
aV2016-11-19
p221
aV2016-12-31
p222
aV2016-07-20
p223
aV2016-10-25
p224
aV2017-03-07
p225
aV2017-10-27
p226
aV2016-09-22
p227
aV2016-11-01
p228
aV2016-11-04
p229
aV2017-02-04
p230
aV2016-08-01
p231
aV2016-08-23
p232
aV2017-08-27
p233
aV2016-09-15
p234
aV2017-05-10
p235
aV2017-05-31
p236
aV2017-04-09
p237
aV2017-05-08
p238
aV2016-11-10
p239
aV2017-01-02
p240
aV2017-08-26
p241
aV2016-07-28
p242
aV2017-01-19
p243
aV2016-07-15
p244
aV2017-09-10
p245
aV2017-11-09
p246
aV2016-10-02
p247
aV2016-09-18
p248
aV2017-07-02
p249
aV2017-02-18
p250
aV2017-09-20
p251
aV2017-10-18
p252
aV2017-11-08
p253
aV2017-02-17
p254
aV2017-09-22
p255
aV2016-11-26
p256
aV2016-10-16
p257
aV2016-12-24
p258
aV2017-06-28
p259
aV2016-10-24
p260
aV2016-11-12
p261
aV2017-03-05
p262
aV2017-06-12
p263
aV2016-11-17
p264
aV2017-06-30
p265
aV2016-10-19
p266
aV2017-04-25
p267
aV2017-03-04
p268
aV2017-06-26
p269
aV2017-06-04
p270
aV2017-09-01
p271
aV2017-02-15
p272
aV2017-07-04
p273
aV2016-09-08
p274
aV2016-10-09
p275
aV2017-01-16
p276
aV2017-08-04
p277
aV2017-10-09
p278
aV2016-07-13
p279
aV2016-11-02
p280
aV2017-11-10
p281
aV2017-05-26
p282
aV2017-01-01
p283
aV2017-05-13
p284
aV2017-03-25
p285
aV2017-11-23
p286
aV2017-02-13
p287
aV2017-08-08
p288
aV2017-05-19
p289
aV2017-04-04
p290
aV2017-01-22
p291
aV2017-02-12
p292
aV2017-07-14
p293
aV2017-10-04
p294
aV2017-01-23
p295
aV2016-08-06
p296
aV2017-06-06
p297
aV2016-08-22
p298
aV2017-03-10
p299
aV2017-06-09
p300
aV2017-11-25
p301
aV2017-07-23
p302
aV2016-12-25
p303
aV2017-08-23
p304
aV2017-07-03
p305
aV2017-10-13
p306
aV2017-07-12
p307
aV2017-08-16
p308
aV2017-04-24
p309
aV2017-04-21
p310
aV2016-08-13
p311
aV2017-11-14
p312
aV2017-11-16
p313
aV2017-06-21
p314
aV2016-10-06
p315
aV2017-04-23
p316
aV2016-08-02
p317
aV2017-09-16
p318
aV2017-10-15
p319
aV2016-09-06
p320
aV2016-12-20
p321
aV2016-08-16
p322
aV2017-11-04
p323
aV2016-08-04
p324
aV2016-08-24
p325
aV2016-09-17
p326
aV2016-10-12
p327
aV2017-08-06
p328
aV2017-01-20
p329
aV2017-04-29
p330
aV2017-02-07
p331
aV2017-03-01
p332
aV2017-05-27
p333
aV2017-01-26
p334
aV2017-11-15
p335
aV2017-02-01
p336
aV2017-10-08
p337
aV2016-07-29
p338
aV2017-06-25
p339
aV2017-04-06
p340
aV2016-10-10
p341
aV2017-08-20
p342
aV2017-10-21
p343
aV2017-10-25
p344
aV2017-07-13
p345
aV2016-10-27
p346
aV2016-08-31
p347
aV2017-01-14
p348
aV2017-03-14
p349
aV2016-07-09
p350
aV2016-07-12
p351
aV2017-11-12
p352
aV2017-06-14
p353
aV2017-05-25
p354
aV2017-09-18
p355
aV2016-11-08
p356
aV2017-09-19
p357
aV2016-11-20
p358
aV2017-04-22
p359
aV2016-10-03
p360
aV2017-03-11
p361
aV2017-01-29
p362
aV2017-05-09
p363
aV2017-03-02
p364
aV2016-09-20
p365
aV2017-01-04
p366
aV2016-08-28
p367
aV2017-06-16
p368
aV2016-08-09
p369
aV2017-07-08
p370
aV2017-11-17
p371
aV2016-07-27
p372
aV2016-08-26
p373
aV2017-02-03
p374
aV2017-09-29
p375
aV2016-07-31
p376
aV2017-05-30
p377
aV2017-01-08
p378
aV2017-10-03
p379
aV2017-04-08
p380
aV2016-10-28
p381
aV2017-02-16
p382
aV2017-11-18
p383
aV2017-02-05
p384
aV2016-10-05
p385
aV2017-03-15
p386
aV2017-07-19
p387
aV2017-11-22
p388
aV2017-02-19
p389
aV2017-09-08
p390
aV2017-07-09
p391
aV2016-09-05
p392
aV2017-01-30
p393
aV2017-08-05
p394
aV2017-01-28
p395
aV2016-09-07
p396
aV2017-04-20
p397
aV2017-02-06
p398
aV2017-08-09
p399
aV2016-11-16
p400
aV2017-11-24
p401
aV2017-11-05
p402
aV2017-01-21
p403
aV2017-01-05
p404
aV2017-02-22
p405
aV2016-08-14
p406
aV2017-10-19
p407
aV2017-05-29
p408
aV2017-07-31
p409
aV2017-02-23
p410
aV2017-01-11
p411
aV2016-09-23
p412
aV2016-09-26
p413
aV2017-02-26
p414
aV2017-10-26
p415
aV2017-04-13
p416
aV2017-04-12
p417
aV2017-07-15
p418
aV2017-09-05
p419
aV2016-09-29
p420
aV2017-07-22
p421
aV2016-09-19
p422
aV2016-08-15
p423
aV2016-09-24
p424
aV2016-12-23
p425
aV2016-08-18
p426
aV2017-02-09
p427
aV2017-07-28
p428
aV2017-04-26
p429
aV2017-05-21
p430
aV2017-10-07
p431
aV2016-10-18
p432
aV2016-12-28
p433
aV2017-10-23
p434
aV2017-08-29
p435
aV2017-05-12
p436
aV2016-11-27
p437
aV2016-08-25
p438
aV2017-09-17
p439
aV2017-07-17
p440
aV2016-11-06
p441
aV2017-09-25
p442
aV2016-12-03
p443
aV2017-05-06
p444
aV2017-06-13
p445
aV2017-03-13
p446
aV2017-11-13
p447
aV2017-06-01
p448
aV2016-11-22
p449
aV2017-11-07
p450
aV2016-11-28
p451
aV2017-08-17
p452
aV2017-01-07
p453
aV2017-03-19
p454
aV2016-10-07
p455
aV2016-09-28
p456
aV2017-04-28
p457
aV2017-07-24
p458
aV2016-09-09
p459
aV2017-09-02
p460
aV2016-11-07
p461
aV2017-03-20
p462
aV2016-08-21
p463
aV2017-02-02
p464
aV2017-08-30
p465
aV2017-11-27
p466
aV2016-10-22
p467
aV2017-01-24
p468
aV2017-08-19
p469
aV2017-10-10
p470
aV2017-03-21
p471
aV2017-04-18
p472
aV2016-07-14
p473
aV2016-07-25
p474
aV2016-10-11
p475
aV2017-06-27
p476
aV2017-06-02
p477
aV2016-09-16
p478
aV2016-09-01
p479
aV2017-11-02
p480
aV2016-09-12
p481
aV2016-12-27
p482
aV2017-07-27
p483
aV2016-08-19
p484
aV2017-07-05
p485
aV2017-08-28
p486
aV2016-11-11
p487
aV2016-12-19
p488
aV2016-09-04
p489
aV2017-08-11
p490
aV2016-08-05
p491
aV2017-11-03
p492
aV2016-08-27
p493
aV2017-11-19
p494
aV2017-07-07
p495
aV2017-06-17
p496
aV2017-10-14
p497
aV2017-11-28
p498
aV2016-12-17
p499
aV2017-03-29
p500
aV2017-11-26
p501
aV2017-08-12
p502
aV2016-11-14
p503
aV2016-11-15
p504
aV2016-07-07
p505
aV2017-08-21
p506
aV2017-03-24
p507
aV2017-05-02
p508
aV2017-07-18
p509
aV2017-01-25
p510
aV2016-07-17
p511
aV2017-11-11
p512
aV2016-10-23
p513
aV2017-01-31
p514
aV2016-08-10
p515
aV2017-02-14
p516
aV2017-04-11
p517
aV2017-11-30
p518
aV2017-07-25
p519
aV2017-07-16
p520
aV2016-12-18
p521
aV2017-03-28
p522
aV2017-04-17
p523
aV2017-02-21
p524
aV2016-09-10
p525
aV2017-04-02
p526
aV2017-06-15
p527
aV2017-07-11
p528
aV2017-11-29
p529
aV2017-03-30
p530
aV2017-05-20
p531
aV2017-07-01
p532
aV2017-08-01
p533
aV2017-06-20
p534
aV2017-09-07
p535
aV2017-11-20
p536
aV2016-10-26
p537
aV2017-04-05
p538
aV2017-01-18
p539
aV2017-04-01
p540
aV2017-04-15
p541
aV2017-11-21
p542
aV2016-09-25
p543
aV2016-11-09
p544
aV2016-11-05
p545
aV2017-11-06
p546
aV2016-10-17
p547
aV2016-11-30
p548
aV2016-07-16
p549
aV2017-03-03
p550
aV2017-06-05
p551
aV2017-09-03
p552
aV2016-07-18
p553
aV2016-10-21
p554
aV2016-12-16
p555
aV2016-12-05
p556
aV2016-09-02
p557
aV2017-07-26
p558
aV2017-07-21
p559
aV2017-09-04
p560
aV2017-07-10
p561
aV2017-03-12
p562
aV2017-02-10
p563
aV2017-03-31
p564
aV2017-09-21
p565
aV2017-10-11
p566
aV2017-09-11
p567
aV2017-10-29
p568
aV2017-04-03
p569
aV2017-05-15
p570
aV2017-05-07
p571
aV2016-10-29
p572
aV2016-10-31
p573
aV2017-06-10
p574
aV2016-09-03
p575
aV2017-10-28
p576
aV2017-02-20
p577
aV2017-08-24
p578
aV2016-11-13
p579
aV2017-01-10
p580
aV2017-03-17
p581
asV150813880
p582
(lp583
V2016-07-29
p584
asV150813430
p585
(lp586
V2017-06-08
p587
asV150223043
p588
(lp589
V2016-06-18
p590
asV150813364
p591
(lp592
V2016-11-24
p593
asVnrd device
p594
(lp595
V2016-06-20
p596
aV2016-06-21
p597
asV150810588
p598
(lp599
V2016-07-03
p600
asV150814168
p601
(lp602
V2016-07-20
p603
aV2016-07-22
p604
aV2016-08-02
p605
aV2016-07-24
p606
aV2016-08-03
p607
aV2016-07-21
p608
asV150814295
p609
(lp610
V2016-06-09
p611
asV150811248
p612
(lp613
V2016-07-04
p614
asV150219847
p615
(lp616
V2016-06-05
p617
asV150219694
p618
(lp619
V2016-06-04
p620
asV150219841
p621
(lp622
V2016-07-05
p623
asV150223102
p624
(lp625
V2016-06-10
p626
asV150218129
p627
(lp628
V2016-07-11
p629
asV150218713
p630
(lp631
V2016-06-12
p632
asV150814730
p633
(lp634
V2016-07-01
p635
asV150814149
p636
(lp637
V2017-09-09
p638
asV150221773
p639
(lp640
V2016-07-10
p641
as.